Certificate:
    Data:
        Version: 3 (0x2)
        Serial Number: 1 (0x1)
    Signature Algorithm: sha256WithRSAEncryption
        Issuer: C=IN, ST=RJ, O=TCS, OU=MBU, CN=SubCA
        Validity
            Not Before: Aug 22 12:20:03 2022 GMT
            Not After : Aug 22 12:20:03 2023 GMT
        Subject: C=IN, ST=RJ, O=TCS, OU=MBU, CN=www.raghav.com
        Subject Public Key Info:
            Public Key Algorithm: rsaEncryption
                Public-Key: (4096 bit)
                Modulus:
                    00:a0:02:2e:c8:be:12:e4:b7:48:44:87:82:82:8f:
                    cd:b6:82:90:f1:c5:7e:b8:79:5a:8d:9e:f7:d6:a2:
                    a7:ba:5a:ef:3d:76:8b:99:1a:6f:f8:6d:d3:c7:de:
                    06:03:3c:83:25:0a:5d:a8:76:fe:86:b9:73:33:98:
                    91:ce:cb:9f:32:7d:12:b0:e2:1b:51:b8:d8:1d:a1:
                    f8:81:1d:ec:bf:e5:a6:00:31:0d:b5:0e:a4:54:bb:
                    cc:e1:8f:85:fa:44:f9:68:40:88:eb:ae:ca:23:08:
                    c9:5f:90:d9:76:1a:f0:dc:f4:de:9b:c5:42:90:12:
                    ac:d1:db:13:a0:e2:94:e5:a3:05:2e:79:e0:c6:1c:
                    ae:6e:58:67:6e:51:1c:6e:b6:75:04:46:41:9d:9d:
                    a8:f2:a8:b3:2a:05:20:7a:39:b7:f2:95:69:f9:1d:
                    04:d1:45:d4:17:be:8b:7d:48:79:83:b0:7c:ea:1e:
                    8a:16:d4:54:17:57:23:5a:96:59:39:2e:cc:9f:b9:
                    9e:08:82:31:a8:b7:ba:5f:50:be:c9:50:9b:da:6a:
                    c4:91:4a:eb:d5:bb:28:f5:61:48:f2:11:d3:08:4b:
                    cb:4d:98:ca:a3:f6:15:3a:d4:07:47:77:11:85:40:
                    85:da:28:25:3c:97:a4:8d:b9:b3:5b:9c:b7:52:a0:
                    a3:03:dc:7e:f6:e9:75:df:b0:fa:52:5f:54:6b:22:
                    a2:74:bf:51:30:9f:e0:44:6f:0b:28:ba:22:c7:63:
                    7f:a4:32:76:7d:7d:d5:4e:77:b7:05:86:64:9d:2e:
                    09:3d:65:e1:4b:5b:03:45:ee:8b:00:69:4d:37:76:
                    f5:44:d9:69:72:a9:73:38:ce:cd:aa:ea:58:4b:e3:
                    d9:79:2d:5b:1d:fb:3c:bc:97:01:a5:c4:a7:c1:b2:
                    e8:d4:81:5d:5a:5c:95:51:49:d1:b6:9b:ef:98:75:
                    4f:fd:47:4b:20:cf:26:3e:30:fc:63:87:a3:9f:8d:
                    00:9e:34:01:17:41:92:7f:bf:48:a6:2f:95:21:e5:
                    42:51:89:c0:c6:38:33:a0:76:d2:a3:e6:7a:82:be:
                    7f:30:44:43:4f:ac:f2:be:20:b2:03:fb:96:35:da:
                    26:80:54:cc:f2:91:48:a1:c0:6b:47:c0:21:64:23:
                    ba:cc:ea:91:09:f8:73:74:7a:9d:1c:2e:25:eb:44:
                    26:8c:29:6c:95:cc:e2:32:96:23:98:9a:47:e5:97:
                    13:19:e8:94:56:8b:6c:97:eb:3e:82:6e:aa:3e:04:
                    ae:9a:99:a7:73:b3:18:ba:b3:ed:f7:bc:b7:7c:2e:
                    00:3a:b8:94:7b:ce:1e:ac:79:9a:1c:fe:d2:e6:6f:
                    c4:50:f9
                Exponent: 65537 (0x10001)
        X509v3 extensions:
            X509v3 Basic Constraints: 
                CA:FALSE
            X509v3 Key Usage: 
                Digital Signature, Non Repudiation, Key Encipherment
    Signature Algorithm: sha256WithRSAEncryption
         86:5a:d5:32:c7:88:47:26:19:e7:12:4e:46:77:94:b3:ee:6d:
         c7:18:f1:07:3f:08:3c:17:f4:6d:fd:50:08:b1:4a:65:25:a9:
         69:1a:6d:97:14:63:95:23:ab:2d:a8:ac:ef:af:48:64:c8:72:
         8b:e6:cc:a9:3c:76:35:47:10:28:d4:e8:af:e2:fd:5a:56:36:
         c7:f3:d2:70:22:0a:e6:c3:b3:8b:e5:dd:43:81:35:be:83:72:
         cd:71:00:7a:d9:69:31:3b:5a:04:f1:d0:34:7b:96:35:49:ba:
         ad:b9:a9:77:2e:23:a1:1e:29:60:8e:a9:71:86:3d:f6:a2:e9:
         b4:56:5c:5e:16:9b:75:3f:f2:40:80:29:2c:d8:de:1d:cf:0f:
         38:4d:a7:49:b3:8f:88:9e:e6:0b:80:c4:8e:c0:3d:01:f5:e5:
         1e:91:43:e0:ae:31:26:a2:9d:02:20:0d:79:a9:23:c2:37:b0:
         4d:81:43:37:a2:64:6a:60:69:e8:0b:cf:9b:06:87:de:2d:8e:
         87:35:fb:54:6c:ee:e2:44:6a:d1:22:4a:5f:20:67:c3:b6:e8:
         a8:01:a9:c3:8d:70:ca:5a:7f:82:f8:01:68:f4:3a:ef:33:be:
         7c:b7:c5:05:a8:0d:fe:95:d7:bd:f0:2f:04:2c:85:7c:fc:ea:
         d8:24:b3:f1:7c:c5:a6:25:0f:19:02:ca:66:93:06:7e:85:e3:
         3a:1b:7c:51:5e:83:b3:e7:06:44:5a:7c:9c:5d:16:c2:36:6b:
         9f:42:68:32:81:c1:54:10:d2:a4:ae:df:f7:b3:07:53:43:68:
         f6:e4:01:c3:02:4b:16:3c:ae:1c:a2:b7:4f:15:0f:e3:a9:a4:
         7b:e1:41:79:67:72:a1:32:62:d4:d5:72:e2:16:9d:9a:54:00:
         e2:f0:b7:48:cd:a7:e2:24:b1:4b:24:01:a9:c7:c1:b2:37:4d:
         bb:14:5c:90:be:c0:03:80:f3:bc:06:c5:e0:1b:0f:54:86:76:
         58:54:98:63:f5:18:07:e3:6d:d3:04:7f:9f:c1:76:99:ef:6b:
         9b:21:85:bf:f4:52:95:87:12:cb:4f:2a:38:a8:2a:86:d4:99:
         e3:13:ad:43:28:4f:e7:8a:1f:0c:0b:15:dd:c3:38:c6:fe:17:
         0a:30:54:96:e6:bf:4a:8f:a5:ba:59:9f:e7:78:25:af:e4:5e:
         74:8f:0f:7e:42:d9:7d:2e:8f:c5:7e:34:d2:4e:55:88:48:6e:
         a1:1f:6a:19:e6:b8:41:1f:08:86:9c:ad:16:a1:61:bf:8b:2b:
         c9:26:a9:d3:2f:5d:3e:10:64:13:f0:96:a2:76:bc:4d:38:d9:
         3b:f4:1b:7d:2e:f7:47:25
-----BEGIN CERTIFICATE-----
MIIFKjCCAxKgAwIBAgIBATANBgkqhkiG9w0BAQsFADBGMQswCQYDVQQGEwJJTjEL
MAkGA1UECAwCUkoxDDAKBgNVBAoMA1RDUzEMMAoGA1UECwwDTUJVMQ4wDAYDVQQD
DAVTdWJDQTAeFw0yMjA4MjIxMjIwMDNaFw0yMzA4MjIxMjIwMDNaME8xCzAJBgNV
BAYTAklOMQswCQYDVQQIDAJSSjEMMAoGA1UECgwDVENTMQwwCgYDVQQLDANNQlUx
FzAVBgNVBAMMDnd3dy5yYWdoYXYuY29tMIICIjANBgkqhkiG9w0BAQEFAAOCAg8A
MIICCgKCAgEAoAIuyL4S5LdIRIeCgo/NtoKQ8cV+uHlajZ731qKnulrvPXaLmRpv
+G3Tx94GAzyDJQpdqHb+hrlzM5iRzsufMn0SsOIbUbjYHaH4gR3sv+WmADENtQ6k
VLvM4Y+F+kT5aECI667KIwjJX5DZdhrw3PTem8VCkBKs0dsToOKU5aMFLnngxhyu
blhnblEcbrZ1BEZBnZ2o8qizKgUgejm38pVp+R0E0UXUF76LfUh5g7B86h6KFtRU
F1cjWpZZOS7Mn7meCIIxqLe6X1C+yVCb2mrEkUrr1bso9WFI8hHTCEvLTZjKo/YV
OtQHR3cRhUCF2iglPJekjbmzW5y3UqCjA9x+9ul137D6Ul9UayKidL9RMJ/gRG8L
KLoix2N/pDJ2fX3VTne3BYZknS4JPWXhS1sDRe6LAGlNN3b1RNlpcqlzOM7NqupY
S+PZeS1bHfs8vJcBpcSnwbLo1IFdWlyVUUnRtpvvmHVP/UdLIM8mPjD8Y4ejn40A
njQBF0GSf79Ipi+VIeVCUYnAxjgzoHbSo+Z6gr5/MERDT6zyviCyA/uWNdomgFTM
8pFIocBrR8AhZCO6zOqRCfhzdHqdHC4l60QmjClslcziMpYjmJpH5ZcTGeiUVots
l+s+gm6qPgSumpmnc7MYurPt97y3fC4AOriUe84erHmaHP7S5m/EUPkCAwEAAaMa
MBgwCQYDVR0TBAIwADALBgNVHQ8EBAMCBeAwDQYJKoZIhvcNAQELBQADggIBAIZa
1TLHiEcmGecSTkZ3lLPubccY8Qc/CDwX9G39UAixSmUlqWkabZcUY5Ujqy2orO+v
SGTIcovmzKk8djVHECjU6K/i/VpWNsfz0nAiCubDs4vl3UOBNb6Dcs1xAHrZaTE7
WgTx0DR7ljVJuq25qXcuI6EeKWCOqXGGPfai6bRWXF4Wm3U/8kCAKSzY3h3PDzhN
p0mzj4ie5guAxI7APQH15R6RQ+CuMSainQIgDXmpI8I3sE2BQzeiZGpgaegLz5sG
h94tjoc1+1Rs7uJEatEiSl8gZ8O26KgBqcONcMpaf4L4AWj0Ou8zvny3xQWoDf6V
173wLwQshXz86tgks/F8xaYlDxkCymaTBn6F4zobfFFeg7PnBkRafJxdFsI2a59C
aDKBwVQQ0qSu3/ezB1NDaPbkAcMCSxY8rhyit08VD+OppHvhQXlncqEyYtTVcuIW
nZpUAOLwt0jNp+IksUskAanHwbI3TbsUXJC+wAOA87wGxeAbD1SGdlhUmGP1GAfj
bdMEf5/Bdpnva5shhb/0UpWHEstPKjioKobUmeMTrUMoT+eKHwwLFd3DOMb+Fwow
VJbmv0qPpbpZn+d4Ja/kXnSPD35C2X0uj8V+NNJOVYhIbqEfahnmuEEfCIacrRah
Yb+LK8kmqdMvXT4QZBPwlqJ2vE042Tv0G30u90cl
-----END CERTIFICATE-----
