Certificate:
    Data:
        Version: 3 (0x2)
        Serial Number: 1 (0x1)
    Signature Algorithm: sha256WithRSAEncryption
        Issuer: C=IN, ST=RJ, L=Jodhpur, O=TCS, OU=MBU, CN=rootCA
        Validity
            Not Before: Aug 22 10:01:49 2022 GMT
            Not After : Aug 19 10:01:49 2032 GMT
        Subject: C=IN, ST=RJ, O=TCS, OU=MBU, CN=SubCA
        Subject Public Key Info:
            Public Key Algorithm: rsaEncryption
                Public-Key: (4096 bit)
                Modulus:
                    00:c2:c8:f1:98:c5:61:ba:13:c6:7c:59:0a:47:f7:
                    d5:85:43:2a:25:40:de:84:22:61:8a:e3:10:17:e5:
                    bb:ef:d4:a5:15:3d:11:ef:c2:f1:85:70:9d:45:12:
                    9b:ea:fc:48:fa:35:5c:c9:62:ac:b1:af:bb:89:c2:
                    a7:1f:e5:c1:62:24:c8:95:8a:92:c7:9f:7a:63:1a:
                    2b:6e:66:c3:a2:5f:c9:3b:77:56:eb:f8:65:f8:fd:
                    20:70:43:57:2b:e9:89:2e:da:31:9d:52:4a:fa:17:
                    17:7d:d7:17:36:02:c7:e9:55:90:40:aa:74:a0:38:
                    0d:8f:1a:a6:c7:05:b4:2b:7a:ab:63:84:17:52:26:
                    61:33:b4:7b:18:a8:0f:be:73:a4:6c:55:ad:ac:e0:
                    fa:18:90:93:a9:5c:5e:ec:a9:61:11:7d:48:88:16:
                    3c:b4:5f:2b:d1:b3:76:a3:7c:b9:1a:76:96:50:98:
                    11:94:fe:e1:72:ae:06:04:52:2b:e6:5e:61:9e:8c:
                    40:53:cd:d8:4b:30:de:48:25:76:d2:1e:18:39:50:
                    a6:19:da:b5:67:c7:2d:a7:18:d0:f9:67:e2:eb:0b:
                    bb:37:0e:c0:11:2d:f4:3f:ce:49:8d:ef:be:b8:6b:
                    5c:ff:56:b3:91:d8:d2:85:dc:02:61:98:90:9b:b8:
                    49:bc:15:40:43:26:e0:0e:59:58:a2:68:fa:85:03:
                    36:ce:cd:67:73:79:16:c4:7c:02:cd:2a:cf:f2:d2:
                    c2:3a:93:6f:45:23:b8:fd:ce:f4:e1:60:21:85:77:
                    70:fe:5f:4d:ea:d8:4a:af:af:b5:62:c8:b8:be:07:
                    3a:2e:60:13:9e:08:e5:7d:c4:2d:33:7f:df:ef:70:
                    44:f9:f0:03:b0:a1:ca:51:cb:6e:88:cd:2a:90:6a:
                    64:4e:00:e3:ee:3c:00:b1:ad:84:36:c6:06:6b:e2:
                    92:a0:ed:9b:62:9e:9c:09:88:ce:b6:b7:e4:34:14:
                    da:d9:93:d7:98:41:2f:75:44:fd:b3:75:ff:ad:ec:
                    bd:11:2f:5e:88:75:1c:81:84:1e:20:19:f6:5f:fb:
                    21:0e:fc:42:64:4a:48:ad:ed:84:cd:14:90:77:70:
                    8d:14:9a:42:86:32:8c:dc:64:38:9f:bf:e3:70:1c:
                    3c:fb:aa:63:34:93:23:e6:fb:c2:5b:8d:fb:0f:23:
                    c2:7c:11:5a:a4:9e:38:5e:a6:96:70:42:fc:07:7e:
                    49:df:e3:1b:50:43:23:f5:08:47:19:9f:cd:9f:d6:
                    21:85:90:ee:b7:e7:29:10:af:bb:0f:5c:85:8e:12:
                    a1:42:89:6d:0f:53:f8:96:a7:48:5a:84:4f:f3:27:
                    15:b3:a9
                Exponent: 65537 (0x10001)
        X509v3 extensions:
            X509v3 Subject Key Identifier: 
                1D:6F:3C:2F:9D:8B:21:50:D4:10:B4:D9:AB:B9:20:99:D5:C4:AD:76
            X509v3 Authority Key Identifier: 
                keyid:68:AC:33:E6:5D:21:A9:BA:9B:FA:D5:A1:91:1C:F5:18:85:2D:A7:DA

            X509v3 Basic Constraints: 
                CA:TRUE, pathlen:0
    Signature Algorithm: sha256WithRSAEncryption
         6d:f4:9e:2f:9b:b6:0f:77:a2:65:05:b8:d3:59:55:6f:ab:d1:
         37:20:ab:07:11:1a:f8:07:ce:3f:13:78:ed:7b:78:3e:c5:af:
         f3:23:0b:41:52:7e:94:2b:52:61:fe:c0:34:6c:1f:4d:97:4a:
         1f:70:7f:0b:08:f3:6c:37:79:9b:af:f5:91:84:f6:d8:a8:7b:
         a5:da:5e:3a:8b:c9:b0:b4:f1:70:c9:d8:0b:52:bd:d4:3b:90:
         83:1c:d7:90:d3:49:6a:74:c3:33:9e:33:b9:48:86:1c:68:0a:
         f3:e1:28:83:cd:58:e0:13:2f:13:6d:e4:47:2f:ee:9b:a9:36:
         32:70:e7:19:6d:2f:4a:76:46:c9:42:a6:62:a6:b2:21:53:da:
         30:ac:49:7a:89:20:42:91:2d:f2:8e:3b:f0:f5:a5:0a:6c:8c:
         ea:dc:a8:a2:94:bd:34:1b:f2:b0:29:a8:f9:76:3e:20:a1:cc:
         cf:1e:a4:5a:5c:39:7b:db:43:cb:2c:48:b7:61:19:95:19:1e:
         a1:0a:bf:9d:67:69:2a:aa:d1:10:69:65:50:12:7a:42:12:81:
         d9:bf:1a:ac:56:95:14:fd:9d:9b:7d:ea:f3:5a:55:b1:0c:8f:
         9c:34:82:0f:1b:7e:a4:47:12:63:2b:9a:12:3e:fe:9e:96:ac:
         12:2b:18:77:69:a0:d4:34:7f:fc:e3:64:fb:df:8a:92:07:8b:
         ef:21:b2:75:1b:8c:7b:15:95:82:fb:2f:ab:51:37:ef:10:61:
         5c:e5:92:28:31:b2:73:91:15:16:96:b1:54:e6:71:01:d1:d2:
         31:34:ab:6d:39:a1:21:a0:c7:b2:46:da:54:45:10:a4:3d:5c:
         90:cd:9e:cd:ce:96:e8:da:d3:17:22:04:4e:0c:d1:dd:a1:0a:
         6a:f7:06:56:6a:6f:aa:46:af:5b:94:f4:62:0e:41:9d:7a:6c:
         42:4c:1b:f2:0f:93:60:17:05:88:4e:d2:7d:c9:4f:82:5f:75:
         17:27:40:6f:1c:c8:0e:c9:4c:88:32:64:b4:80:d5:2e:f5:c0:
         cd:ce:0e:28:6c:57:52:cc:ce:3a:f6:c6:41:d9:5f:89:3d:ea:
         4e:a5:4c:a5:6e:06:4f:46:41:74:93:89:c4:55:ad:3e:ce:b1:
         69:70:bb:5a:bf:db:54:53:92:67:1a:05:15:58:d5:f5:de:cc:
         ed:5b:50:e8:46:ba:7f:ed:9f:fb:76:50:60:4f:34:3b:f3:90:
         07:63:e1:e1:3a:00:54:ef:6e:90:42:26:86:c7:f7:f6:d2:2f:
         8c:50:a1:18:99:0b:28:14:5e:bf:ec:72:15:cf:50:44:8a:0c:
         be:40:d9:64:55:80:fe:c0
-----BEGIN CERTIFICATE-----
MIIFbTCCA1WgAwIBAgIBATANBgkqhkiG9w0BAQsFADBZMQswCQYDVQQGEwJJTjEL
MAkGA1UECAwCUkoxEDAOBgNVBAcMB0pvZGhwdXIxDDAKBgNVBAoMA1RDUzEMMAoG
A1UECwwDTUJVMQ8wDQYDVQQDDAZyb290Q0EwHhcNMjIwODIyMTAwMTQ5WhcNMzIw
ODE5MTAwMTQ5WjBGMQswCQYDVQQGEwJJTjELMAkGA1UECAwCUkoxDDAKBgNVBAoM
A1RDUzEMMAoGA1UECwwDTUJVMQ4wDAYDVQQDDAVTdWJDQTCCAiIwDQYJKoZIhvcN
AQEBBQADggIPADCCAgoCggIBAMLI8ZjFYboTxnxZCkf31YVDKiVA3oQiYYrjEBfl
u+/UpRU9Ee/C8YVwnUUSm+r8SPo1XMlirLGvu4nCpx/lwWIkyJWKksefemMaK25m
w6JfyTt3Vuv4Zfj9IHBDVyvpiS7aMZ1SSvoXF33XFzYCx+lVkECqdKA4DY8apscF
tCt6q2OEF1ImYTO0exioD75zpGxVrazg+hiQk6lcXuypYRF9SIgWPLRfK9GzdqN8
uRp2llCYEZT+4XKuBgRSK+ZeYZ6MQFPN2Esw3kgldtIeGDlQphnatWfHLacY0Pln
4usLuzcOwBEt9D/OSY3vvrhrXP9Ws5HY0oXcAmGYkJu4SbwVQEMm4A5ZWKJo+oUD
Ns7NZ3N5FsR8As0qz/LSwjqTb0UjuP3O9OFgIYV3cP5fTerYSq+vtWLIuL4HOi5g
E54I5X3ELTN/3+9wRPnwA7ChylHLbojNKpBqZE4A4+48ALGthDbGBmvikqDtm2Ke
nAmIzra35DQU2tmT15hBL3VE/bN1/63svREvXoh1HIGEHiAZ9l/7IQ78QmRKSK3t
hM0UkHdwjRSaQoYyjNxkOJ+/43AcPPuqYzSTI+b7wluN+w8jwnwRWqSeOF6mlnBC
/Ad+Sd/jG1BDI/UIRxmfzZ/WIYWQ7rfnKRCvuw9chY4SoUKJbQ9T+JanSFqET/Mn
FbOpAgMBAAGjUzBRMB0GA1UdDgQWBBQdbzwvnYshUNQQtNmruSCZ1cStdjAfBgNV
HSMEGDAWgBRorDPmXSGpupv61aGRHPUYhS2n2jAPBgNVHRMECDAGAQH/AgEAMA0G
CSqGSIb3DQEBCwUAA4ICAQBt9J4vm7YPd6JlBbjTWVVvq9E3IKsHERr4B84/E3jt
e3g+xa/zIwtBUn6UK1Jh/sA0bB9Nl0ofcH8LCPNsN3mbr/WRhPbYqHul2l46i8mw
tPFwydgLUr3UO5CDHNeQ00lqdMMznjO5SIYcaArz4SiDzVjgEy8TbeRHL+6bqTYy
cOcZbS9KdkbJQqZiprIhU9owrEl6iSBCkS3yjjvw9aUKbIzq3KiilL00G/KwKaj5
dj4goczPHqRaXDl720PLLEi3YRmVGR6hCr+dZ2kqqtEQaWVQEnpCEoHZvxqsVpUU
/Z2bferzWlWxDI+cNIIPG36kRxJjK5oSPv6elqwSKxh3aaDUNH/842T734qSB4vv
IbJ1G4x7FZWC+y+rUTfvEGFc5ZIoMbJzkRUWlrFU5nEB0dIxNKttOaEhoMeyRtpU
RRCkPVyQzZ7Nzpbo2tMXIgRODNHdoQpq9wZWam+qRq9blPRiDkGdemxCTBvyD5Ng
FwWITtJ9yU+CX3UXJ0BvHMgOyUyIMmS0gNUu9cDNzg4obFdSzM469sZB2V+JPepO
pUylbgZPRkF0k4nEVa0+zrFpcLtav9tUU5JnGgUVWNX13sztW1DoRrp/7Z/7dlBg
TzQ785AHY+HhOgBU726QQiaGx/f20i+MUKEYmQsoFF6/7HIVz1BEigy+QNlkVYD+
wA==
-----END CERTIFICATE-----
